; Function Attrs: mustprogress nounwind uwtable
define hidden noundef ptr @hermesCompileResult_getError(ptr noundef %res) local_unnamed_addr #0 {
entry:
  %tobool.not = icmp eq ptr %res, null
  br i1 %tobool.not, label %return, label %lor.lhs.false

lor.lhs.false:                                    ; preds = %entry
  %call = tail call noundef zeroext i1 @_ZNKSt7__cxx1112basic_stringIcSt11char_traitsIcESaIcEE5emptyEv(ptr noundef nonnull align 8 dereferenceable(32) %res) #15
  br i1 %call, label %return, label %if.end

if.end:                                           ; preds = %lor.lhs.false
  %call2 = tail call noundef ptr @_ZNKSt7__cxx1112basic_stringIcSt11char_traitsIcESaIcEE5c_strEv(ptr noundef nonnull align 8 dereferenceable(32) %res) #15
  br label %return

return:                                           ; preds = %entry, %lor.lhs.false, %if.end
  %retval.0 = phi ptr [ %call2, %if.end ], [ null, %lor.lhs.false ], [ null, %entry ]
  ret ptr %retval.0
}